; Function Attrs: mustprogress nofree norecurse nosync nounwind willreturn uwtable
define internal fastcc void @_ZN2cvL14f64_sin_kernelENS_10softdoubleE(ptr dead_on_unwind noalias nocapture writable writeonly align 8 %0, ptr nocapture noundef readonly %1) unnamed_addr #11 {
  %3 = alloca %"struct.cv::softdouble", align 8
  %4 = alloca %"struct.cv::softdouble", align 8
  %5 = alloca %"struct.cv::softdouble", align 8
  %6 = alloca %"struct.cv::softdouble", align 8
  %7 = alloca %"struct.cv::softdouble", align 8
  %8 = alloca %"struct.cv::softdouble", align 8
  %9 = alloca %"struct.cv::softdouble", align 8
  %10 = alloca %"struct.cv::softdouble", align 8
  %11 = load i64, ptr %1, align 8
  %12 = and i64 %11, 9205357638345293824
  %13 = icmp ult i64 %12, 4485585228861014016
  br i1 %13, label %_ZNK2cv10softdoubleneERKS0_.exit.thread, label %14

_ZNK2cv10softdoubleneERKS0_.exit.thread:          ; preds = %2
  store i64 %11, ptr %0, align 8
  br label %15

14:                                               ; preds = %2
  call void @_ZNK2cv10softdoublemlERKS0_(ptr dead_on_unwind nonnull writable sret(%"struct.cv::softdouble") align 8 %3, ptr noundef nonnull align 8 dereferenceable(8) %1, ptr noundef nonnull align 8 dereferenceable(8) %1)
  call void @_ZN2cv6mulAddERKNS_10softdoubleES2_S2_(ptr dead_on_unwind nonnull writable sret(%"struct.cv::softdouble") align 8 %9, ptr noundef nonnull align 8 dereferenceable(8) %3, ptr noundef nonnull align 8 dereferenceable(8) @_ZN2cvL2S6E, ptr noundef nonnull align 8 dereferenceable(8) @_ZN2cvL2S5E)
  call void @_ZN2cv6mulAddERKNS_10softdoubleES2_S2_(ptr dead_on_unwind nonnull writable sret(%"struct.cv::softdouble") align 8 %8, ptr noundef nonnull align 8 dereferenceable(8) %3, ptr noundef nonnull align 8 dereferenceable(8) %9, ptr noundef nonnull align 8 dereferenceable(8) @_ZN2cvL2S4E)
  call void @_ZN2cv6mulAddERKNS_10softdoubleES2_S2_(ptr dead_on_unwind nonnull writable sret(%"struct.cv::softdouble") align 8 %7, ptr noundef nonnull align 8 dereferenceable(8) %3, ptr noundef nonnull align 8 dereferenceable(8) %8, ptr noundef nonnull align 8 dereferenceable(8) @_ZN2cvL2S3E)
  call void @_ZN2cv6mulAddERKNS_10softdoubleES2_S2_(ptr dead_on_unwind nonnull writable sret(%"struct.cv::softdouble") align 8 %6, ptr noundef nonnull align 8 dereferenceable(8) %3, ptr noundef nonnull align 8 dereferenceable(8) %7, ptr noundef nonnull align 8 dereferenceable(8) @_ZN2cvL2S2E)
  call void @_ZN2cv6mulAddERKNS_10softdoubleES2_S2_(ptr dead_on_unwind nonnull writable sret(%"struct.cv::softdouble") align 8 %5, ptr noundef nonnull align 8 dereferenceable(8) %3, ptr noundef nonnull align 8 dereferenceable(8) %6, ptr noundef nonnull align 8 dereferenceable(8) @_ZN2cvL2S1E)
  store i64 4607182418800017408, ptr %10, align 8, !alias.scope !583
  call void @_ZN2cv6mulAddERKNS_10softdoubleES2_S2_(ptr dead_on_unwind nonnull writable sret(%"struct.cv::softdouble") align 8 %4, ptr noundef nonnull align 8 dereferenceable(8) %3, ptr noundef nonnull align 8 dereferenceable(8) %5, ptr noundef nonnull align 8 dereferenceable(8) %10)
  call void @_ZNK2cv10softdoublemlERKS0_(ptr dead_on_unwind writable sret(%"struct.cv::softdouble") align 8 %0, ptr noundef nonnull align 8 dereferenceable(8) %1, ptr noundef nonnull align 8 dereferenceable(8) %4)
  br label %15

15:                                               ; preds = %14, %_ZNK2cv10softdoubleneERKS0_.exit.thread
  ret void
}